; ModuleID = 'source-C-CXX/14/2318.cpp'
source_filename = "source-C-CXX/14/2318.cpp"
target datalayout = "e-m:e-p270:32:32-p271:32:32-p272:64:64-i64:64-f80:128-n8:16:32:64-S128"
target triple = "x86_64-pc-linux-gnu"

%"class.std::ios_base::Init" = type { i8 }
%"class.std::basic_istream" = type { i32 (...)**, i64, %"class.std::basic_ios" }
%"class.std::basic_ios" = type { %"class.std::ios_base", %"class.std::basic_ostream"*, i8, i8, %"class.std::basic_streambuf"*, %"class.std::ctype"*, %"class.std::num_put"*, %"class.std::num_get"* }
%"class.std::ios_base" = type { i32 (...)**, i64, i64, i32, i32, i32, %"struct.std::ios_base::_Callback_list"*, %"struct.std::ios_base::_Words", [8 x %"struct.std::ios_base::_Words"], i32, %"struct.std::ios_base::_Words"*, %"class.std::locale" }
%"struct.std::ios_base::_Callback_list" = type { %"struct.std::ios_base::_Callback_list"*, void (i32, %"class.std::ios_base"*, i32)*, i32, i32 }
%"struct.std::ios_base::_Words" = type { i8*, i64 }
%"class.std::locale" = type { %"class.std::locale::_Impl"* }
%"class.std::locale::_Impl" = type { i32, %"class.std::locale::facet"**, i64, %"class.std::locale::facet"**, i8** }
%"class.std::locale::facet" = type <{ i32 (...)**, i32, [4 x i8] }>
%"class.std::basic_ostream" = type { i32 (...)**, %"class.std::basic_ios" }
%"class.std::basic_streambuf" = type { i32 (...)**, i8*, i8*, i8*, i8*, i8*, i8*, %"class.std::locale" }
%"class.std::ctype" = type <{ %"class.std::locale::facet.base", [4 x i8], %struct.__locale_struct*, i8, [7 x i8], i32*, i32*, i16*, i8, [256 x i8], [256 x i8], i8, [6 x i8] }>
%"class.std::locale::facet.base" = type <{ i32 (...)**, i32 }>
%struct.__locale_struct = type { [13 x %struct.__locale_data*], i16*, i32*, i32*, [13 x i8*] }
%struct.__locale_data = type opaque
%"class.std::num_put" = type { %"class.std::locale::facet.base", [4 x i8] }
%"class.std::num_get" = type { %"class.std::locale::facet.base", [4 x i8] }

@_ZStL8__ioinit = internal global %"class.std::ios_base::Init" zeroinitializer, align 1
@__dso_handle = external hidden global i8
@_ZSt3cin = external global %"class.std::basic_istream", align 8
@_ZSt4cout = external global %"class.std::basic_ostream", align 8
@llvm.global_ctors = appending global [1 x { i32, void ()*, i8* }] [{ i32, void ()*, i8* } { i32 65535, void ()* @_GLOBAL__sub_I_2318.cpp, i8* null }]

declare void @_ZNSt8ios_base4InitC1Ev(%"class.std::ios_base::Init"* nonnull align 1 dereferenceable(1)) unnamed_addr #0

; Function Attrs: nounwind
declare void @_ZNSt8ios_base4InitD1Ev(%"class.std::ios_base::Init"* nonnull align 1 dereferenceable(1)) unnamed_addr #1

; Function Attrs: nofree nounwind
declare i32 @__cxa_atexit(void (i8*)*, i8*, i8*) local_unnamed_addr #2

; Function Attrs: mustprogress norecurse sspstrong uwtable
define dso_local i32 @main() local_unnamed_addr #3 {
  %1 = alloca i32, align 4
  %2 = alloca i32, align 4
  %3 = bitcast i32* %1 to i8*
  call void @llvm.lifetime.start.p0i8(i64 4, i8* nonnull %3) #6
  %4 = call nonnull align 8 dereferenceable(16) %"class.std::basic_istream"* @_ZNSirsERi(%"class.std::basic_istream"* nonnull align 8 dereferenceable(16) @_ZSt3cin, i32* nonnull align 4 dereferenceable(4) %1)
  %5 = bitcast i32* %2 to i8*
  call void @llvm.lifetime.start.p0i8(i64 4, i8* nonnull %5) #6
  %6 = load i32, i32* %1, align 4, !tbaa !5
  %7 = icmp sgt i32 %6, 0
  br i1 %7, label %8, label %30

8:                                                ; preds = %0, %27
  %9 = phi i32 [ %24, %27 ], [ %6, %0 ]
  %10 = phi i32 [ %28, %27 ], [ 0, %0 ]
  %11 = icmp sgt i32 %9, 0
  br i1 %11, label %12, label %23

12:                                               ; preds = %8, %19
  %13 = phi i32 [ %20, %19 ], [ 0, %8 ]
  %14 = call nonnull align 8 dereferenceable(16) %"class.std::basic_istream"* @_ZNSirsERi(%"class.std::basic_istream"* nonnull align 8 dereferenceable(16) @_ZSt3cin, i32* nonnull align 4 dereferenceable(4) %2)
  %15 = load i32, i32* %2, align 4, !tbaa !5
  %16 = icmp eq i32 %15, 0
  br i1 %16, label %17, label %19

17:                                               ; preds = %12
  %18 = load i32, i32* %1, align 4, !tbaa !5
  br label %23

19:                                               ; preds = %12
  %20 = add nuw nsw i32 %13, 1
  %21 = load i32, i32* %1, align 4, !tbaa !5
  %22 = icmp slt i32 %20, %21
  br i1 %22, label %12, label %23, !llvm.loop !9

23:                                               ; preds = %19, %17, %8
  %24 = phi i32 [ %9, %8 ], [ %18, %17 ], [ %21, %19 ]
  %25 = phi i32 [ 0, %8 ], [ %13, %17 ], [ %20, %19 ]
  %26 = icmp eq i32 %25, %24
  br i1 %26, label %27, label %30

27:                                               ; preds = %23
  %28 = add nuw nsw i32 %10, 1
  %29 = icmp slt i32 %28, %24
  br i1 %29, label %8, label %30, !llvm.loop !11

30:                                               ; preds = %27, %23, %0
  %31 = phi i32 [ %6, %0 ], [ %24, %23 ], [ %24, %27 ]
  %32 = phi i32 [ 0, %0 ], [ %28, %27 ], [ %10, %23 ]
  %33 = phi i32 [ 0, %0 ], [ %25, %23 ], [ %25, %27 ]
  %34 = add nsw i32 %33, 1
  %35 = icmp slt i32 %34, %31
  br i1 %35, label %42, label %36

36:                                               ; preds = %42, %30
  %37 = phi i32 [ %31, %30 ], [ %46, %42 ]
  %38 = add nuw nsw i32 %32, 1
  %39 = icmp slt i32 %38, %37
  %40 = icmp sgt i32 %37, 0
  %41 = and i1 %39, %40
  br i1 %41, label %54, label %72

42:                                               ; preds = %30, %42
  %43 = phi i32 [ %45, %42 ], [ %34, %30 ]
  %44 = call nonnull align 8 dereferenceable(16) %"class.std::basic_istream"* @_ZNSirsERi(%"class.std::basic_istream"* nonnull align 8 dereferenceable(16) @_ZSt3cin, i32* nonnull align 4 dereferenceable(4) %2)
  %45 = add nsw i32 %43, 1
  %46 = load i32, i32* %1, align 4, !tbaa !5
  %47 = icmp slt i32 %45, %46
  br i1 %47, label %42, label %36, !llvm.loop !13

48:                                               ; preds = %60, %54
  %49 = phi i32 [ %55, %54 ], [ %70, %60 ]
  %50 = phi i32 [ %58, %54 ], [ %67, %60 ]
  %51 = phi i32 [ %57, %54 ], [ %68, %60 ]
  %52 = add nuw nsw i32 %56, 1
  %53 = icmp slt i32 %52, %49
  br i1 %53, label %54, label %72, !llvm.loop !14

54:                                               ; preds = %36, %48
  %55 = phi i32 [ %49, %48 ], [ %37, %36 ]
  %56 = phi i32 [ %52, %48 ], [ %38, %36 ]
  %57 = phi i32 [ %51, %48 ], [ 0, %36 ]
  %58 = phi i32 [ %50, %48 ], [ 0, %36 ]
  %59 = icmp sgt i32 %55, 0
  br i1 %59, label %60, label %48

60:                                               ; preds = %54, %60
  %61 = phi i32 [ %69, %60 ], [ 0, %54 ]
  %62 = phi i32 [ %68, %60 ], [ %57, %54 ]
  %63 = phi i32 [ %67, %60 ], [ %58, %54 ]
  %64 = call nonnull align 8 dereferenceable(16) %"class.std::basic_istream"* @_ZNSirsERi(%"class.std::basic_istream"* nonnull align 8 dereferenceable(16) @_ZSt3cin, i32* nonnull align 4 dereferenceable(4) %2)
  %65 = load i32, i32* %2, align 4, !tbaa !5
  %66 = icmp eq i32 %65, 0
  %67 = select i1 %66, i32 %56, i32 %63
  %68 = select i1 %66, i32 %61, i32 %62
  %69 = add nuw nsw i32 %61, 1
  %70 = load i32, i32* %1, align 4, !tbaa !5
  %71 = icmp slt i32 %69, %70
  br i1 %71, label %60, label %48, !llvm.loop !15

72:                                               ; preds = %48, %36
  %73 = phi i32 [ 0, %36 ], [ %50, %48 ]
  %74 = phi i32 [ 0, %36 ], [ %51, %48 ]
  %75 = xor i32 %32, -1
  %76 = add i32 %73, %75
  %77 = xor i32 %33, -1
  %78 = add i32 %74, %77
  %79 = mul nsw i32 %78, %76
  %80 = call nonnull align 8 dereferenceable(8) %"class.std::basic_ostream"* @_ZNSolsEi(%"class.std::basic_ostream"* nonnull align 8 dereferenceable(8) @_ZSt4cout, i32 %79)
  call void @llvm.lifetime.end.p0i8(i64 4, i8* nonnull %5) #6
  call void @llvm.lifetime.end.p0i8(i64 4, i8* nonnull %3) #6
  ret i32 0
}

; Function Attrs: argmemonly mustprogress nofree nosync nounwind willreturn
declare void @llvm.lifetime.start.p0i8(i64 immarg, i8* nocapture) #4

declare nonnull align 8 dereferenceable(16) %"class.std::basic_istream"* @_ZNSirsERi(%"class.std::basic_istream"* nonnull align 8 dereferenceable(16), i32* nonnull align 4 dereferenceable(4)) local_unnamed_addr #0

declare nonnull align 8 dereferenceable(8) %"class.std::basic_ostream"* @_ZNSolsEi(%"class.std::basic_ostream"* nonnull align 8 dereferenceable(8), i32) local_unnamed_addr #0

; Function Attrs: argmemonly mustprogress nofree nosync nounwind willreturn
declare void @llvm.lifetime.end.p0i8(i64 immarg, i8* nocapture) #4

; Function Attrs: sspstrong uwtable
define internal void @_GLOBAL__sub_I_2318.cpp() #5 section ".text.startup" {
  tail call void @_ZNSt8ios_base4InitC1Ev(%"class.std::ios_base::Init"* nonnull align 1 dereferenceable(1) @_ZStL8__ioinit)
  %1 = tail call i32 @__cxa_atexit(void (i8*)* bitcast (void (%"class.std::ios_base::Init"*)* @_ZNSt8ios_base4InitD1Ev to void (i8*)*), i8* getelementptr inbounds (%"class.std::ios_base::Init", %"class.std::ios_base::Init"* @_ZStL8__ioinit, i64 0, i32 0), i8* nonnull @__dso_handle) #6
  ret void
}


!llvm.module.flags = !{!0, !1, !2, !3}
!llvm.ident = !{!4}

!0 = !{i32 1, !"wchar_size", i32 4}
!1 = !{i32 7, !"PIC Level", i32 2}
!2 = !{i32 7, !"PIE Level", i32 2}
!3 = !{i32 7, !"uwtable", i32 1}
!4 = !{!"clang version 13.0.0"}
!5 = !{!6, !6, i64 0}
!6 = !{!"int", !7, i64 0}
!7 = !{!"omnipotent char", !8, i64 0}
!8 = !{!"Simple C++ TBAA"}
!9 = distinct !{!9, !10}
!10 = !{!"llvm.loop.mustprogress"}
!11 = distinct !{!11, !10, !12}
!12 = !{!"llvm.loop.unswitch.partial.disable"}
!13 = distinct !{!13, !10}
!14 = distinct !{!14, !10, !12}
!15 = distinct !{!15, !10}
